; Function Attrs: nounwind uwtable
define dso_local range(i32 0, 28) i32 @Curl_parse_login_details(ptr noundef %0, i64 noundef %1, ptr noundef writeonly captures(none) %2, ptr noundef writeonly captures(none) %3, ptr noundef writeonly %4) local_unnamed_addr #0 {
  %6 = tail call ptr @memchr(ptr noundef %0, i32 noundef 58, i64 noundef %1) #13
  %.not = icmp eq ptr %4, null
  br i1 %.not, label %9, label %7

7:                                                ; preds = %5
  %8 = tail call ptr @memchr(ptr noundef %0, i32 noundef 59, i64 noundef %1) #13
  br label %9

9:                                                ; preds = %7, %5
  %.059 = phi ptr [ %8, %7 ], [ null, %5 ]
  %.not68 = icmp ne ptr %6, null
  br i1 %.not68, label %10, label %19

10:                                               ; preds = %9
  %.not70 = icmp ne ptr %.059, null
  %11 = icmp ugt ptr %6, %.059
  %or.cond = select i1 %.not70, i1 %11, i1 false
  %12 = ptrtoint ptr %6 to i64
  %13 = ptrtoint ptr %0 to i64
  %14 = ptrtoint ptr %.059 to i64
  %.ph.v = select i1 %or.cond, i64 %14, i64 %12
  %.ph = sub i64 %.ph.v, %13
  %15 = icmp ugt ptr %.059, %6
  %or.cond77 = select i1 %.not70, i1 %15, i1 false
  %16 = getelementptr inbounds nuw i8, ptr %0, i64 %1
  %.v.v = select i1 %or.cond77, ptr %.059, ptr %16
  %.v = ptrtoint ptr %.v.v to i64
  %17 = xor i64 %12, -1
  %18 = add i64 %.v, %17
  br label %24

19:                                               ; preds = %9
  %.not69 = icmp eq ptr %.059, null
  %20 = ptrtoint ptr %.059 to i64
  %21 = ptrtoint ptr %0 to i64
  %22 = sub i64 %20, %21
  %23 = select i1 %.not69, i64 %1, i64 %22
  br label %24

24:                                               ; preds = %19, %10
  %25 = phi i64 [ %.ph, %10 ], [ %23, %19 ]
  %26 = phi i64 [ %18, %10 ], [ 0, %19 ]
  %.not72 = icmp eq ptr %.059, null
  br i1 %.not72, label %33, label %27

27:                                               ; preds = %24
  %28 = icmp ugt ptr %6, %.059
  %or.cond78 = select i1 %.not68, i1 %28, i1 false
  %29 = ptrtoint ptr %.059 to i64
  %30 = getelementptr inbounds nuw i8, ptr %0, i64 %1
  %.v81.v = select i1 %or.cond78, ptr %6, ptr %30
  %.v81 = ptrtoint ptr %.v81.v to i64
  %31 = xor i64 %29, -1
  %32 = add i64 %.v81, %31
  br label %33

33:                                               ; preds = %24, %27
  %34 = phi i64 [ %32, %27 ], [ 0, %24 ]
  %35 = tail call ptr @Curl_memdup0(ptr noundef %0, i64 noundef %25) #12
  %.not73 = icmp eq ptr %35, null
  br i1 %.not73, label %46, label %36

36:                                               ; preds = %33
  br i1 %.not68, label %37, label %40

37:                                               ; preds = %36
  %38 = getelementptr inbounds nuw i8, ptr %6, i64 1
  %39 = tail call ptr @Curl_memdup0(ptr noundef nonnull %38, i64 noundef %26) #12
  %.not74 = icmp eq ptr %39, null
  br i1 %.not74, label %46, label %40

40:                                               ; preds = %37, %36
  %.1 = phi ptr [ %39, %37 ], [ null, %36 ]
  br i1 %.not, label %45, label %41

41:                                               ; preds = %40
  %.not75 = icmp eq i64 %34, 0
  br i1 %.not75, label %.thread79, label %42

42:                                               ; preds = %41
  %43 = getelementptr inbounds nuw i8, ptr %.059, i64 1
  %44 = tail call ptr @Curl_memdup0(ptr noundef nonnull %43, i64 noundef %34) #12
  %.not76 = icmp eq ptr %44, null
  br i1 %.not76, label %46, label %.thread79

.thread79:                                        ; preds = %41, %42
  %.056 = phi ptr [ %44, %42 ], [ null, %41 ]
  store ptr %.056, ptr %4, align 8, !tbaa !8
  br label %45

45:                                               ; preds = %.thread79, %40
  store ptr %35, ptr %2, align 8, !tbaa !8
  store ptr %.1, ptr %3, align 8, !tbaa !8
  br label %49

46:                                               ; preds = %42, %37, %33
  %.058 = phi ptr [ null, %37 ], [ null, %33 ], [ %.1, %42 ]
  %47 = load ptr, ptr @Curl_cfree, align 8, !tbaa !4
  tail call void %47(ptr noundef %35) #12
  %48 = load ptr, ptr @Curl_cfree, align 8, !tbaa !4
  tail call void %48(ptr noundef %.058) #12
  br label %49

49:                                               ; preds = %46, %45
  %.057 = phi i32 [ 27, %46 ], [ 0, %45 ]
  ret i32 %.057
}